; Function Attrs: nofree norecurse nosync nounwind memory(readwrite, inaccessiblemem: none) uwtable
define void @Llb_ManFlowUnmarkCone(ptr noundef readnone captures(none) %0, ptr noundef readonly captures(none) %1) local_unnamed_addr #8 {
  %3 = getelementptr i8, ptr %1, i64 4
  %.val56 = load i32, ptr %3, align 4, !tbaa !10
  %4 = icmp sgt i32 %.val56, 0
  br i1 %4, label %.lr.ph, label %.critedge

.lr.ph:                                           ; preds = %2
  %5 = getelementptr i8, ptr %1, i64 8
  br label %6

6:                                                ; preds = %.lr.ph, %6
  %indvars.iv = phi i64 [ 0, %.lr.ph ], [ %indvars.iv.next, %6 ]
  %.val = load ptr, ptr %5, align 8, !tbaa !9
  %7 = getelementptr inbounds nuw ptr, ptr %.val, i64 %indvars.iv
  %8 = load ptr, ptr %7, align 8, !tbaa !11
  %9 = getelementptr inbounds nuw i8, ptr %8, i64 24
  %10 = load i64, ptr %9, align 8
  %11 = and i64 %10, -33
  store i64 %11, ptr %9, align 8
  %indvars.iv.next = add nuw nsw i64 %indvars.iv, 1
  %.val5 = load i32, ptr %3, align 4, !tbaa !10
  %12 = sext i32 %.val5 to i64
  %13 = icmp slt i64 %indvars.iv.next, %12
  br i1 %13, label %6, label %.critedge, !llvm.loop !86

.critedge:                                        ; preds = %6, %2
  ret void
}